; Function Attrs: nounwind uwtable
define internal fastcc ptr @math_1(ptr noundef %0, ptr noundef readonly captures(none) %1, i32 noundef range(i32 0, 2) %2, ptr noundef %3) unnamed_addr #0 {
  %5 = tail call double @PyFloat_AsDouble(ptr noundef %0) #16
  %6 = fcmp oeq double %5, -1.000000e+00
  br i1 %6, label %7, label %9

7:                                                ; preds = %4
  %8 = tail call ptr @PyErr_Occurred() #16
  %.not = icmp eq ptr %8, null
  br i1 %.not, label %9, label %is_error.exit.thread

9:                                                ; preds = %7, %4
  %10 = tail call ptr @__errno_location() #17
  store i32 0, ptr %10, align 4, !tbaa !14
  %11 = tail call double %1(double noundef %5) #16
  %12 = fcmp ord double %11, 0.000000e+00
  %13 = fcmp uno double %5, 0.000000e+00
  %or.cond = or i1 %13, %12
  br i1 %or.cond, label %14, label %36

14:                                               ; preds = %9
  %15 = tail call double @llvm.fabs.f64(double %11)
  %16 = fcmp une double %15, 0x7FF0000000000000
  %17 = tail call double @llvm.fabs.f64(double %5)
  %18 = fcmp ueq double %17, 0x7FF0000000000000
  %or.cond26 = or i1 %18, %16
  br i1 %or.cond26, label %22, label %19

19:                                               ; preds = %14
  %.not22 = icmp eq i32 %2, 0
  br i1 %.not22, label %36, label %20

20:                                               ; preds = %19
  %21 = load ptr, ptr @PyExc_OverflowError, align 8, !tbaa !12
  tail call void @PyErr_SetString(ptr noundef %21, ptr noundef nonnull @.str.59) #16
  br label %is_error.exit.thread

22:                                               ; preds = %14
  %23 = fcmp ueq double %15, 0x7FF0000000000000
  br i1 %23, label %is_error.exit, label %24

24:                                               ; preds = %22
  %25 = load i32, ptr %10, align 4, !tbaa !14
  switch i32 %25, label %32 [
    i32 0, label %is_error.exit
    i32 33, label %26
    i32 34, label %28
  ]

26:                                               ; preds = %24
  %27 = load ptr, ptr @PyExc_ValueError, align 8, !tbaa !12
  tail call void @PyErr_SetString(ptr noundef %27, ptr noundef nonnull @.str.60) #16
  br label %is_error.exit.thread

28:                                               ; preds = %24
  %29 = fcmp olt double %15, 1.500000e+00
  br i1 %29, label %is_error.exit, label %30

30:                                               ; preds = %28
  %31 = load ptr, ptr @PyExc_OverflowError, align 8, !tbaa !12
  tail call void @PyErr_SetString(ptr noundef %31, ptr noundef nonnull @.str.59) #16
  br label %is_error.exit.thread

32:                                               ; preds = %24
  %33 = load ptr, ptr @PyExc_ValueError, align 8, !tbaa !12
  %34 = tail call ptr @PyErr_SetFromErrno(ptr noundef %33) #16
  br label %is_error.exit.thread

is_error.exit:                                    ; preds = %24, %28, %22
  %35 = tail call ptr @PyFloat_FromDouble(double noundef %11) #16
  br label %is_error.exit.thread

36:                                               ; preds = %9, %19
  %.not23 = icmp eq ptr %3, null
  br i1 %.not23, label %42, label %37

37:                                               ; preds = %36
  %38 = tail call ptr @PyOS_double_to_string(double noundef %5, i8 noundef signext 114, i32 noundef 0, i32 noundef 2, ptr noundef null) #16
  %.not24 = icmp eq ptr %38, null
  br i1 %.not24, label %is_error.exit.thread, label %39

39:                                               ; preds = %37
  %40 = load ptr, ptr @PyExc_ValueError, align 8, !tbaa !12
  %41 = tail call ptr (ptr, ptr, ...) @PyErr_Format(ptr noundef %40, ptr noundef nonnull %3, ptr noundef nonnull %38) #16
  tail call void @PyMem_Free(ptr noundef nonnull %38) #16
  br label %is_error.exit.thread

42:                                               ; preds = %36
  %43 = load ptr, ptr @PyExc_ValueError, align 8, !tbaa !12
  tail call void @PyErr_SetString(ptr noundef %43, ptr noundef nonnull @.str.60) #16
  br label %is_error.exit.thread

is_error.exit.thread:                             ; preds = %32, %30, %26, %42, %39, %37, %7, %is_error.exit, %20
  %.0 = phi ptr [ null, %20 ], [ %35, %is_error.exit ], [ null, %7 ], [ null, %37 ], [ null, %39 ], [ null, %42 ], [ null, %26 ], [ null, %30 ], [ null, %32 ]
  ret ptr %.0
}